Certificate:
    Data:
        Version: 3 (0x2)
        Serial Number: 2 (0x2)
        Signature Algorithm: sha1WithRSAEncryption
        Issuer: C=US, ST=California, L=San Marcos, O=Mangos, CN=mangos.example.com
        Validity
            Not Before: Apr 27 01:38:42 2014 GMT
            Not After : Apr 26 01:38:42 2019 GMT
        Subject: C=US, ST=California, O=Mangos, CN=client.mangos.example.com
        Subject Public Key Info:
            Public Key Algorithm: rsaEncryption
            RSA Public Key: (2048 bit)
                Modulus (2048 bit):
                    00:af:45:c6:62:9a:34:b8:0a:5a:9f:c8:32:f6:21:
                    78:b1:e9:54:0d:c9:2b:dc:50:38:48:b3:8f:0a:19:
                    72:a5:1b:c8:93:eb:dd:6d:69:ed:56:c0:2d:ea:d6:
                    5a:6d:3d:27:d7:68:30:3a:df:a8:23:53:15:95:3c:
                    31:d8:d0:ce:ce:3b:92:8f:07:d2:6c:4c:a5:99:99:
                    df:47:a3:41:c6:5f:03:a2:a3:c3:f2:48:6b:63:34:
                    19:b0:c4:bd:1a:6f:bd:0d:f8:d0:a2:4f:46:34:ba:
                    39:4b:07:15:be:1b:7b:24:0d:9d:77:e0:db:79:5a:
                    36:b3:2f:b7:ec:bd:92:6e:c1:25:5c:ef:ff:bd:61:
                    a3:6f:03:06:31:91:3d:83:05:f9:be:21:7e:c3:58:
                    1a:ff:55:5e:05:bd:c7:fa:3e:90:40:ff:9f:6a:5f:
                    59:8c:79:5d:2c:93:49:85:6d:0e:5f:bf:58:65:64:
                    01:84:db:2d:3d:2b:07:dd:62:29:4c:9b:e3:d3:5f:
                    63:5c:4d:39:6d:f9:d2:a2:0d:c9:af:ef:53:3b:4d:
                    97:e4:ca:68:12:d1:76:7c:4f:39:8f:bf:6c:8b:0c:
                    cd:f4:60:19:a9:13:96:71:e0:10:20:cd:c8:68:42:
                    9f:b9:3f:30:2f:26:98:f9:6e:0b:b1:7d:b1:02:f7:
                    69:9f
                Exponent: 65537 (0x10001)
        X509v3 extensions:
            X509v3 Basic Constraints: 
                CA:FALSE
            Netscape Comment: 
                OpenSSL Generated Certificate
            X509v3 Subject Key Identifier: 
                27:0F:5C:48:E5:4F:14:82:B9:0F:43:EE:56:F3:9A:5B:F1:42:49:4E
            X509v3 Authority Key Identifier: 
                keyid:B7:FB:54:15:BC:61:95:EF:58:F5:9F:C3:26:EC:EC:23:D7:CB:BE:C0

    Signature Algorithm: sha1WithRSAEncryption
        07:03:17:0c:0d:4b:0b:7d:d9:e8:ac:10:82:c0:03:f1:dc:e0:
        d6:1e:29:08:42:d1:d3:0c:96:6f:f6:af:56:80:ca:45:51:51:
        85:50:77:93:85:81:e4:40:5d:c6:d0:97:93:f9:04:11:96:14:
        8e:7c:8c:72:be:37:00:6f:77:89:c2:0f:2c:f3:9a:97:78:5a:
        4c:c0:2d:a3:86:e8:2d:a5:ed:04:53:e6:1d:be:80:ba:b3:45:
        c9:df:8f:58:d8:5c:9a:f7:91:f2:c4:a6:14:7b:04:c1:22:c7:
        bc:27:70:7b:e9:70:0d:06:d6:69:ca:0d:bd:03:3f:be:8d:16:
        0c:84
-----BEGIN CERTIFICATE-----
MIIDMTCCApqgAwIBAgIBAjANBgkqhkiG9w0BAQUFADBlMQswCQYDVQQGEwJVUzET
MBEGA1UECBMKQ2FsaWZvcm5pYTETMBEGA1UEBxMKU2FuIE1hcmNvczEPMA0GA1UE
ChMGTWFuZ29zMRswGQYDVQQDExJtYW5nb3MuZXhhbXBsZS5jb20wHhcNMTQwNDI3
MDEzODQyWhcNMTkwNDI2MDEzODQyWjBXMQswCQYDVQQGEwJVUzETMBEGA1UECBMK
Q2FsaWZvcm5pYTEPMA0GA1UEChMGTWFuZ29zMSIwIAYDVQQDExljbGllbnQubWFu
Z29zLmV4YW1wbGUuY29tMIIBIjANBgkqhkiG9w0BAQEFAAOCAQ8AMIIBCgKCAQEA
r0XGYpo0uApan8gy9iF4selUDckr3FA4SLOPChlypRvIk+vdbWntVsAt6tZabT0n
12gwOt+oI1MVlTwx2NDOzjuSjwfSbEylmZnfR6NBxl8DoqPD8khrYzQZsMS9Gm+9
DfjQok9GNLo5SwcVvht7JA2dd+DbeVo2sy+37L2SbsElXO//vWGjbwMGMZE9gwX5
viF+w1ga/1VeBb3H+j6QQP+fal9ZjHldLJNJhW0OX79YZWQBhNstPSsH3WIpTJvj
019jXE05bfnSog3Jr+9TO02X5MpoEtF2fE85j79siwzN9GAZqROWceAQIM3IaEKf
uT8wLyaY+W4LsX2xAvdpnwIDAQABo3sweTAJBgNVHRMEAjAAMCwGCWCGSAGG+EIB
DQQfFh1PcGVuU1NMIEdlbmVyYXRlZCBDZXJ0aWZpY2F0ZTAdBgNVHQ4EFgQUJw9c
SOVPFIK5D0PuVvOaW/FCSU4wHwYDVR0jBBgwFoAUt/tUFbxhle9Y9Z/DJuzsI9fL
vsAwDQYJKoZIhvcNAQEFBQADgYEABwMXDA1LC33Z6KwQgsAD8dzg1h4pCELR0wyW
b/avVoDKRVFRhVB3k4WB5EBdxtCXk/kEEZYUjnyMcr43AG93icIPLPOal3haTMAt
o4boLaXtBFPmHb6AurNFyd+PWNhcmveR8sSmFHsEwSLHvCdwe+lwDQbWacoNvQM/
vo0WDIQ=
-----END CERTIFICATE-----
